target datalayout = "e-m:e-p270:32:32-p271:32:32-p272:64:64-i64:64-i128:128-f80:128-n8:16:32:64-S128"
target triple = "x86_64-pc-linux-gnu"

%struct.lua_State = type { %struct.GCRef, i8, i8, i8, i8, %struct.MRef, %struct.GCRef, ptr, ptr, %struct.MRef, %struct.MRef, %struct.GCRef, %struct.GCRef, ptr, i32 }
%struct.MRef = type { i64 }
%struct.GCRef = type { i64 }
%union.TValue = type { i64 }
%struct.global_State = type { ptr, ptr, %struct.GCState, %struct.GCstr, i8, i8, i8, i8, %struct.StrInternState, i32, %struct.GCRef, %struct.SBuf, %union.TValue, %union.TValue, %struct.Node, %union.TValue, %struct.GCupval, i32, i32, ptr, ptr, ptr, i32, i32, %struct.GCRef, %struct.MRef, %struct.MRef, %struct.PRNGState, [39 x %struct.GCRef] }
%struct.GCState = type { i64, i64, i8, i8, i8, i8, i32, %struct.GCRef, %struct.MRef, %struct.GCRef, %struct.GCRef, %struct.GCRef, %struct.GCRef, i64, i64, i32, i32, %struct.MRef }
%struct.GCstr = type { %struct.GCRef, i8, i8, i8, i8, i32, i32, i32 }
%struct.StrInternState = type { ptr, i32, i32, i32, i8, i8, i8, i8, i64 }
%struct.SBuf = type { ptr, ptr, ptr, %struct.MRef }
%struct.Node = type { %union.TValue, %union.TValue, %struct.MRef }
%struct.GCupval = type { %struct.GCRef, i8, i8, i8, i8, %union.anon, %struct.MRef, i32 }
%union.anon = type { %struct.anon.1 }
%struct.anon.1 = type { %struct.GCRef, %struct.GCRef }
%struct.PRNGState = type { [4 x i64] }

@.str = private unnamed_addr constant [23 x i8] c"copy of dead GC object\00", align 1

; Function Attrs: alwaysinline nounwind uwtable
define internal void @checklivetv(ptr noundef %0, ptr noundef %1, ptr noundef %2) #4 {
  %4 = alloca ptr, align 8
  %5 = alloca ptr, align 8
  %6 = alloca ptr, align 8
  store ptr %0, ptr %4, align 8, !tbaa !4
  store ptr %1, ptr %5, align 8, !tbaa !22
  store ptr %2, ptr %6, align 8, !tbaa !20
  ret void
}

; Function Attrs: alwaysinline nounwind uwtable
define internal void @copyTV(ptr noundef %0, ptr noundef %1, ptr noundef %2) #4 {
  %4 = alloca ptr, align 8
  %5 = alloca ptr, align 8
  %6 = alloca ptr, align 8
  store ptr %0, ptr %4, align 8, !tbaa !4
  store ptr %1, ptr %5, align 8, !tbaa !22
  store ptr %2, ptr %6, align 8, !tbaa !22
  %7 = load ptr, ptr %5, align 8, !tbaa !22
  %8 = load ptr, ptr %6, align 8, !tbaa !22
  call void @llvm.memcpy.p0.p0.i64(ptr align 8 %7, ptr align 8 %8, i64 8, i1 false), !tbaa.struct !25
  %9 = load ptr, ptr %4, align 8, !tbaa !4
  %10 = load ptr, ptr %5, align 8, !tbaa !22
  call void @checklivetv(ptr noundef %9, ptr noundef %10, ptr noundef @.str)
  ret void
}

; Function Attrs: nounwind uwtable
define internal ptr @index2adr_stack(ptr noundef %0, i32 noundef %1) #0 {
  %3 = alloca ptr, align 8
  %4 = alloca ptr, align 8
  %5 = alloca i32, align 4
  %6 = alloca ptr, align 8
  %7 = alloca i32, align 4
  store ptr %0, ptr %4, align 8, !tbaa !4
  store i32 %1, ptr %5, align 4, !tbaa !16
  %8 = load i32, ptr %5, align 4, !tbaa !16
  %9 = icmp sgt i32 %8, 0
  br i1 %9, label %10, label %34

10:                                               ; preds = %2
  call void @llvm.lifetime.start.p0(i64 8, ptr %6) #9
  %11 = load ptr, ptr %4, align 8, !tbaa !4
  %12 = getelementptr inbounds nuw %struct.lua_State, ptr %11, i32 0, i32 7
  %13 = load ptr, ptr %12, align 8, !tbaa !18
  %14 = load i32, ptr %5, align 4, !tbaa !16
  %15 = sub nsw i32 %14, 1
  %16 = sext i32 %15 to i64
  %17 = getelementptr inbounds %union.TValue, ptr %13, i64 %16
  store ptr %17, ptr %6, align 8, !tbaa !22
  %18 = load ptr, ptr %6, align 8, !tbaa !22
  %19 = load ptr, ptr %4, align 8, !tbaa !4
  %20 = getelementptr inbounds nuw %struct.lua_State, ptr %19, i32 0, i32 8
  %21 = load ptr, ptr %20, align 8, !tbaa !17
  %22 = icmp ult ptr %18, %21
  br i1 %22, label %23, label %25

23:                                               ; preds = %10
  %24 = load ptr, ptr %6, align 8, !tbaa !22
  store ptr %24, ptr %3, align 8
  store i32 1, ptr %7, align 4
  br label %33

25:                                               ; preds = %10
  %26 = load ptr, ptr %4, align 8, !tbaa !4
  %27 = getelementptr inbounds nuw %struct.lua_State, ptr %26, i32 0, i32 5
  %28 = getelementptr inbounds nuw %struct.MRef, ptr %27, i32 0, i32 0
  %29 = load i64, ptr %28, align 8, !tbaa !29
  %30 = inttoptr i64 %29 to ptr
  %31 = getelementptr inbounds nuw %struct.global_State, ptr %30, i32 0, i32 14
  %32 = getelementptr inbounds nuw %struct.Node, ptr %31, i32 0, i32 0
  store ptr %32, ptr %3, align 8
  store i32 1, ptr %7, align 4
  br label %33

33:                                               ; preds = %25, %23
  call void @llvm.lifetime.end.p0(i64 8, ptr %6) #9
  br label %41

34:                                               ; preds = %2
  %35 = load ptr, ptr %4, align 8, !tbaa !4
  %36 = getelementptr inbounds nuw %struct.lua_State, ptr %35, i32 0, i32 8
  %37 = load ptr, ptr %36, align 8, !tbaa !17
  %38 = load i32, ptr %5, align 4, !tbaa !16
  %39 = sext i32 %38 to i64
  %40 = getelementptr inbounds %union.TValue, ptr %37, i64 %39
  store ptr %40, ptr %3, align 8
  br label %41

41:                                               ; preds = %34, %33
  %42 = load ptr, ptr %3, align 8
  ret ptr %42
}

; Function Attrs: nounwind uwtable
define dso_local void @lua_insert(ptr noundef %0, i32 noundef %1) #0 {
  %3 = alloca ptr, align 8
  %4 = alloca i32, align 4
  %5 = alloca ptr, align 8
  %6 = alloca ptr, align 8
  store ptr %0, ptr %3, align 8, !tbaa !4
  store i32 %1, ptr %4, align 4, !tbaa !16
  call void @llvm.lifetime.start.p0(i64 8, ptr %5) #9
  call void @llvm.lifetime.start.p0(i64 8, ptr %6) #9
  %7 = load ptr, ptr %3, align 8, !tbaa !4
  %8 = load i32, ptr %4, align 4, !tbaa !16
  %9 = call ptr @index2adr_stack(ptr noundef %7, i32 noundef %8)
  store ptr %9, ptr %6, align 8, !tbaa !22
  %10 = load ptr, ptr %3, align 8, !tbaa !4
  %11 = getelementptr inbounds nuw %struct.lua_State, ptr %10, i32 0, i32 8
  %12 = load ptr, ptr %11, align 8, !tbaa !17
  store ptr %12, ptr %5, align 8, !tbaa !22
  br label %13

13:                                               ; preds = %22, %2
  %14 = load ptr, ptr %5, align 8, !tbaa !22
  %15 = load ptr, ptr %6, align 8, !tbaa !22
  %16 = icmp ugt ptr %14, %15
  br i1 %16, label %17, label %25

17:                                               ; preds = %13
  %18 = load ptr, ptr %3, align 8, !tbaa !4
  %19 = load ptr, ptr %5, align 8, !tbaa !22
  %20 = load ptr, ptr %5, align 8, !tbaa !22
  %21 = getelementptr inbounds %union.TValue, ptr %20, i64 -1
  call void @copyTV(ptr noundef %18, ptr noundef %19, ptr noundef %21)
  br label %22

22:                                               ; preds = %17
  %23 = load ptr, ptr %5, align 8, !tbaa !22
  %24 = getelementptr inbounds %union.TValue, ptr %23, i32 -1
  store ptr %24, ptr %5, align 8, !tbaa !22
  br label %13, !llvm.loop !30

25:                                               ; preds = %13
  %26 = load ptr, ptr %3, align 8, !tbaa !4
  %27 = load ptr, ptr %6, align 8, !tbaa !22
  %28 = load ptr, ptr %3, align 8, !tbaa !4
  %29 = getelementptr inbounds nuw %struct.lua_State, ptr %28, i32 0, i32 8
  %30 = load ptr, ptr %29, align 8, !tbaa !17
  call void @copyTV(ptr noundef %26, ptr noundef %27, ptr noundef %30)
  call void @llvm.lifetime.end.p0(i64 8, ptr %6) #9
  call void @llvm.lifetime.end.p0(i64 8, ptr %5) #9
  ret void
}