; Function Attrs: nofree norecurse nosync nounwind memory(readwrite, inaccessiblemem: none) uwtable
define dso_local void @lua_insert(ptr noundef readonly captures(none) %0, i32 noundef %1) local_unnamed_addr #6 {
  %3 = icmp sgt i32 %1, 0
  br i1 %3, label %4, label %18

4:                                                ; preds = %2
  %5 = getelementptr inbounds nuw i8, ptr %0, i64 32
  %6 = load ptr, ptr %5, align 8, !tbaa !15
  %7 = zext nneg i32 %1 to i64
  %8 = getelementptr %union.TValue, ptr %6, i64 %7
  %9 = getelementptr i8, ptr %8, i64 -8
  %10 = getelementptr inbounds nuw i8, ptr %0, i64 40
  %11 = load ptr, ptr %10, align 8, !tbaa !14
  %12 = icmp ult ptr %9, %11
  br i1 %12, label %index2adr_stack.exit, label %13

13:                                               ; preds = %4
  %14 = getelementptr inbounds nuw i8, ptr %0, i64 16
  %15 = load i64, ptr %14, align 8, !tbaa !21
  %16 = inttoptr i64 %15 to ptr
  %17 = getelementptr inbounds nuw i8, ptr %16, i64 248
  br label %index2adr_stack.exit

18:                                               ; preds = %2
  %19 = getelementptr inbounds nuw i8, ptr %0, i64 40
  %20 = load ptr, ptr %19, align 8, !tbaa !14
  %21 = sext i32 %1 to i64
  %22 = getelementptr inbounds %union.TValue, ptr %20, i64 %21
  br label %index2adr_stack.exit

index2adr_stack.exit:                             ; preds = %4, %13, %18
  %23 = phi ptr [ %20, %18 ], [ %11, %13 ], [ %11, %4 ]
  %.1.i = phi ptr [ %22, %18 ], [ %17, %13 ], [ %9, %4 ]
  %24 = getelementptr inbounds nuw i8, ptr %0, i64 40
  %25 = icmp ugt ptr %23, %.1.i
  br i1 %25, label %.lr.ph, label %._crit_edge

.lr.ph:                                           ; preds = %index2adr_stack.exit, %.lr.ph
  %.012 = phi ptr [ %26, %.lr.ph ], [ %23, %index2adr_stack.exit ]
  %26 = getelementptr inbounds i8, ptr %.012, i64 -8
  %27 = load i64, ptr %26, align 8, !tbaa !17
  store i64 %27, ptr %.012, align 8, !tbaa !17
  %28 = icmp ugt ptr %26, %.1.i
  br i1 %28, label %.lr.ph, label %._crit_edge.loopexit, !llvm.loop !23

._crit_edge.loopexit:                             ; preds = %.lr.ph
  %.pre = load ptr, ptr %24, align 8, !tbaa !14
  br label %._crit_edge

._crit_edge:                                      ; preds = %._crit_edge.loopexit, %index2adr_stack.exit
  %29 = phi ptr [ %.pre, %._crit_edge.loopexit ], [ %23, %index2adr_stack.exit ]
  %30 = load i64, ptr %29, align 8, !tbaa !17
  store i64 %30, ptr %.1.i, align 8, !tbaa !17
  ret void
}